; Function Attrs: mustprogress nofree norecurse nosync nounwind willreturn memory(read, inaccessiblemem: none) uwtable
define internal range(i32 0, 101) i32 @mv_probe(ptr noundef readonly captures(none) %0) #0 {
  %2 = getelementptr inbounds nuw i8, ptr %0, i64 8
  %3 = load ptr, ptr %2, align 8, !tbaa !4
  %4 = load i32, ptr %3, align 1, !tbaa !11
  %5 = icmp eq i32 %4, 1230393165
  br i1 %5, label %6, label %11

6:                                                ; preds = %1
  %7 = getelementptr inbounds nuw i8, ptr %3, i64 4
  %8 = load i16, ptr %7, align 1, !tbaa !11
  %9 = tail call i16 @llvm.bswap.i16(i16 %8)
  %10 = icmp ult i16 %9, 3
  br i1 %10, label %12, label %11

11:                                               ; preds = %6, %1
  br label %12

12:                                               ; preds = %6, %11
  %.0 = phi i32 [ 0, %11 ], [ 100, %6 ]
  ret i32 %.0
}